; Function Attrs: nounwind uwtable
define hidden void @SDL_BindGPUComputeSamplers_REAL(ptr noundef readonly captures(address_is_null) %0, i32 noundef %1, ptr noundef %2, i32 noundef %3) local_unnamed_addr #0 {
  %5 = icmp eq ptr %0, null
  br i1 %5, label %6, label %8

6:                                                ; preds = %4
  %7 = tail call zeroext i1 (ptr, ...) @SDL_SetError_REAL(ptr noundef nonnull @.str.4, ptr noundef nonnull @.str.274) #7
  br label %.thread

8:                                                ; preds = %4
  %9 = icmp eq ptr %2, null
  %10 = icmp ne i32 %3, 0
  %or.cond = and i1 %9, %10
  br i1 %or.cond, label %11, label %13

11:                                               ; preds = %8
  %12 = tail call zeroext i1 (ptr, ...) @SDL_SetError_REAL(ptr noundef nonnull @.str.4, ptr noundef nonnull @.str.233) #7
  br label %.thread

13:                                               ; preds = %8
  %14 = load ptr, ptr %0, align 8
  %15 = load ptr, ptr %14, align 8
  %16 = getelementptr inbounds nuw i8, ptr %15, i64 684
  %17 = load i8, ptr %16, align 4, !range !5, !noundef !6
  %18 = trunc nuw i8 %17 to i1
  br i1 %18, label %19, label %25

19:                                               ; preds = %13
  %20 = getelementptr inbounds nuw i8, ptr %0, i64 8
  %21 = load i8, ptr %20, align 8, !range !5, !noundef !6
  %22 = trunc nuw i8 %21 to i1
  br i1 %22, label %25, label %.preheader

.preheader:                                       ; preds = %19, %.preheader
  %23 = tail call i32 @SDL_ReportAssertion_REAL(ptr noundef nonnull @SDL_BindGPUComputeSamplers_REAL.sdl_assert_data, ptr noundef nonnull @__func__.SDL_BindGPUComputeSamplers_REAL, ptr noundef nonnull @.str.8, i32 noundef 2261) #7
  switch i32 %23, label %.thread [
    i32 0, label %.preheader
    i32 1, label %24
  ]

24:                                               ; preds = %.preheader
  tail call void @llvm.debugtrap()
  br label %.thread

25:                                               ; preds = %19, %13
  %26 = getelementptr inbounds nuw i8, ptr %15, i64 352
  %27 = load ptr, ptr %26, align 8
  tail call void %27(ptr noundef nonnull %14, i32 noundef %1, ptr noundef %2, i32 noundef %3) #7
  br label %.thread

.thread:                                          ; preds = %.preheader, %24, %25, %11, %6
  ret void
}